target datalayout = "e-m:e-p270:32:32-p271:32:32-p272:64:64-i64:64-i128:128-f80:128-n8:16:32:64-S128"
target triple = "x86_64-pc-linux-gnu"

%class.oopDesc = type { %class.markWord, %"union.oopDesc::_metadata" }
%class.markWord = type { i64 }
%"union.oopDesc::_metadata" = type { ptr }
%class.anon.43 = type { i8 }

@UseCompressedOops = external global i8, align 1
@UseCompressedClassPointers = external global i8, align 1

; Function Attrs: mustprogress nounwind uwtable
define linkonce_odr hidden noundef i64 @_ZZN7oopDesc21klass_offset_in_bytesEvENKUlvE_clEv(ptr noundef nonnull align 1 dereferenceable(1) %0) #1 comdat align 2 {
  %2 = alloca ptr, align 8
  %3 = alloca [16 x i8], align 16
  %4 = alloca ptr, align 8
  %5 = alloca ptr, align 8
  store ptr %0, ptr %2, align 8
  %6 = getelementptr inbounds [16 x i8], ptr %3, i64 0, i64 0
  store ptr %6, ptr %4, align 8
  %7 = load ptr, ptr %4, align 8
  %8 = getelementptr inbounds %class.oopDesc, ptr %7, i32 0, i32 1
  store ptr %8, ptr %5, align 8
  %9 = load ptr, ptr %5, align 8
  %10 = getelementptr inbounds [16 x i8], ptr %3, i64 0, i64 0
  %11 = ptrtoint ptr %9 to i64
  %12 = ptrtoint ptr %10 to i64
  %13 = sub i64 %11, %12
  ret i64 %13
}

; Function Attrs: mustprogress nounwind uwtable
define linkonce_odr hidden noundef i32 @_ZN7oopDesc21klass_offset_in_bytesEv() #1 comdat align 2 {
  %1 = alloca %class.anon.43, align 1
  %2 = call noundef i64 @_ZZN7oopDesc21klass_offset_in_bytesEvENKUlvE_clEv(ptr noundef nonnull align 1 dereferenceable(1) %1)
  %3 = trunc i64 %2 to i32
  ret i32 %3
}

; Function Attrs: mustprogress nounwind uwtable
define linkonce_odr hidden noundef i32 @_ZN7oopDesc25klass_gap_offset_in_bytesEv() #1 comdat align 2 {
  %1 = call noundef i32 @_ZN7oopDesc21klass_offset_in_bytesEv()
  %2 = sext i32 %1 to i64
  %3 = add i64 %2, 4
  %4 = trunc i64 %3 to i32
  ret i32 %4
}

; Function Attrs: mustprogress nounwind uwtable
define linkonce_odr hidden noundef i64 @_Z10align_downImiTnNSt9enable_ifIXcvbsr3std11is_integralIT_EE5valueEiE4typeELi0EES1_S1_T0_(i64 noundef %0, i32 noundef %1) #1 comdat {
  %3 = alloca i64, align 8
  %4 = alloca i32, align 4
  %5 = alloca i64, align 8
  store i64 %0, ptr %3, align 8
  store i32 %1, ptr %4, align 4
  %6 = load i64, ptr %3, align 8
  %7 = load i32, ptr %4, align 4
  %8 = call noundef i32 @_ZL14alignment_maskIiTnNSt9enable_ifIXcvbsr3std11is_integralIT_EE5valueEiE4typeELi0EES1_S1_(i32 noundef %7)
  %9 = sext i32 %8 to i64
  %10 = xor i64 %9, -1
  %11 = and i64 %6, %10
  store i64 %11, ptr %5, align 8
  %12 = load i64, ptr %5, align 8
  ret i64 %12
}

; Function Attrs: mustprogress nounwind uwtable
define linkonce_odr hidden noundef i64 @_Z12checked_castImmET_T0_(i64 noundef %0) #1 comdat {
  %2 = alloca i64, align 8
  %3 = alloca i64, align 8
  store i64 %0, ptr %2, align 8
  %4 = load i64, ptr %2, align 8
  store i64 %4, ptr %3, align 8
  %5 = load i64, ptr %3, align 8
  ret i64 %5
}

; Function Attrs: mustprogress nounwind uwtable
define internal noundef i32 @_ZL14alignment_maskIiTnNSt9enable_ifIXcvbsr3std11is_integralIT_EE5valueEiE4typeELi0EES1_S1_(i32 noundef %0) #1 {
  %2 = alloca i32, align 4
  store i32 %0, ptr %2, align 4
  %3 = load i32, ptr %2, align 4
  %4 = sub nsw i32 %3, 1
  ret i32 %4
}

; Function Attrs: mustprogress nounwind uwtable
define linkonce_odr hidden noundef i32 @_ZN12arrayOopDesc22length_offset_in_bytesEv() #1 comdat align 2 {
  %1 = load i8, ptr @UseCompressedClassPointers, align 1
  %2 = trunc i8 %1 to i1
  br i1 %2, label %3, label %6

3:                                                ; preds = %0
  %4 = call noundef i32 @_ZN7oopDesc25klass_gap_offset_in_bytesEv()
  %5 = sext i32 %4 to i64
  br label %7

6:                                                ; preds = %0
  br label %7

7:                                                ; preds = %6, %3
  %8 = phi i64 [ %5, %3 ], [ 16, %6 ]
  %9 = trunc i64 %8 to i32
  ret i32 %9
}

; Function Attrs: mustprogress nounwind uwtable
define linkonce_odr hidden noundef i64 @_Z8align_upImiTnNSt9enable_ifIXcvbsr3std11is_integralIT_EE5valueEiE4typeELi0EES1_S1_T0_(i64 noundef %0, i32 noundef %1) #1 comdat {
  %3 = alloca i64, align 8
  %4 = alloca i32, align 4
  %5 = alloca i64, align 8
  store i64 %0, ptr %3, align 8
  store i32 %1, ptr %4, align 4
  %6 = load i64, ptr %3, align 8
  %7 = load i32, ptr %4, align 4
  %8 = call noundef i32 @_ZL14alignment_maskIiTnNSt9enable_ifIXcvbsr3std11is_integralIT_EE5valueEiE4typeELi0EES1_S1_(i32 noundef %7)
  %9 = sext i32 %8 to i64
  %10 = add i64 %6, %9
  %11 = call noundef i64 @_Z12checked_castImmET_T0_(i64 noundef %10)
  store i64 %11, ptr %5, align 8
  %12 = load i64, ptr %5, align 8
  %13 = load i32, ptr %4, align 4
  %14 = call noundef i64 @_Z10align_downImiTnNSt9enable_ifIXcvbsr3std11is_integralIT_EE5valueEiE4typeELi0EES1_S1_T0_(i64 noundef %12, i32 noundef %13)
  ret i64 %14
}

; Function Attrs: mustprogress nounwind uwtable
define linkonce_odr hidden noundef zeroext i1 @_ZN12arrayOopDesc30element_type_should_be_alignedE9BasicType(i8 noundef zeroext %0) #1 comdat align 2 {
  %2 = alloca i1, align 1
  %3 = alloca i8, align 1
  store i8 %0, ptr %3, align 1
  %4 = load i8, ptr %3, align 1
  %5 = zext i8 %4 to i32
  %6 = icmp eq i32 %5, 12
  br i1 %6, label %11, label %7

7:                                                ; preds = %1
  %8 = load i8, ptr %3, align 1
  %9 = zext i8 %8 to i32
  %10 = icmp eq i32 %9, 13
  br i1 %10, label %11, label %15

11:                                               ; preds = %7, %1
  %12 = load i8, ptr @UseCompressedOops, align 1
  %13 = trunc i8 %12 to i1
  %14 = xor i1 %13, true
  store i1 %14, ptr %2, align 1
  br label %25

15:                                               ; preds = %7
  %16 = load i8, ptr %3, align 1
  %17 = zext i8 %16 to i32
  %18 = icmp eq i32 %17, 7
  br i1 %18, label %23, label %19

19:                                               ; preds = %15
  %20 = load i8, ptr %3, align 1
  %21 = zext i8 %20 to i32
  %22 = icmp eq i32 %21, 11
  br label %23

23:                                               ; preds = %19, %15
  %24 = phi i1 [ true, %15 ], [ %22, %19 ]
  store i1 %24, ptr %2, align 1
  br label %25

25:                                               ; preds = %23, %11
  %26 = load i1, ptr %2, align 1
  ret i1 %26
}

; Function Attrs: mustprogress nounwind uwtable
define linkonce_odr hidden noundef i32 @_ZN12arrayOopDesc20header_size_in_bytesEv() #1 comdat align 2 {
  %1 = alloca i64, align 8
  %2 = call noundef i32 @_ZN12arrayOopDesc22length_offset_in_bytesEv()
  %3 = sext i32 %2 to i64
  %4 = add i64 %3, 4
  store i64 %4, ptr %1, align 8
  %5 = load i64, ptr %1, align 8
  %6 = trunc i64 %5 to i32
  ret i32 %6
}

; Function Attrs: mustprogress nounwind uwtable
define linkonce_odr hidden noundef i32 @_ZN15objArrayOopDesc20base_offset_in_bytesEv() #1 comdat align 2 {
  %1 = call noundef i32 @_ZN12arrayOopDesc20base_offset_in_bytesE9BasicType(i8 noundef zeroext 12)
  ret i32 %1
}

; Function Attrs: mustprogress nounwind uwtable
define linkonce_odr hidden noundef i32 @_ZN12arrayOopDesc20base_offset_in_bytesE9BasicType(i8 noundef zeroext %0) #1 comdat align 2 {
  %2 = alloca i8, align 1
  %3 = alloca i64, align 8
  store i8 %0, ptr %2, align 1
  %4 = call noundef i32 @_ZN12arrayOopDesc20header_size_in_bytesEv()
  %5 = sext i32 %4 to i64
  store i64 %5, ptr %3, align 8
  %6 = load i8, ptr %2, align 1
  %7 = call noundef zeroext i1 @_ZN12arrayOopDesc30element_type_should_be_alignedE9BasicType(i8 noundef zeroext %6)
  br i1 %7, label %8, label %11

8:                                                ; preds = %1
  %9 = load i64, ptr %3, align 8
  %10 = call noundef i64 @_Z8align_upImiTnNSt9enable_ifIXcvbsr3std11is_integralIT_EE5valueEiE4typeELi0EES1_S1_T0_(i64 noundef %9, i32 noundef 8)
  br label %13

11:                                               ; preds = %1
  %12 = load i64, ptr %3, align 8
  br label %13

13:                                               ; preds = %11, %8
  %14 = phi i64 [ %10, %8 ], [ %12, %11 ]
  %15 = trunc i64 %14 to i32
  ret i32 %15
}

; Function Attrs: mustprogress nounwind uwtable
define hidden void @_ZN15MetaspaceShared9serializeEP16SerializeClosure(ptr noundef %0) #1 align 2 {
  %2 = alloca ptr, align 8
  %3 = alloca i32, align 4
  store ptr %0, ptr %2, align 8
  store i32 0, ptr %3, align 4
  %4 = load ptr, ptr %2, align 8
  %5 = load i32, ptr %3, align 4
  %6 = add nsw i32 %5, -1
  store i32 %6, ptr %3, align 4
  %7 = load ptr, ptr %4, align 8
  %8 = getelementptr inbounds ptr, ptr %7, i64 6
  %9 = load ptr, ptr %8, align 8
  call void %9(ptr noundef nonnull align 8 dereferenceable(8) %4, i32 noundef %6)
  %10 = load ptr, ptr %2, align 8
  %11 = load ptr, ptr %10, align 8
  %12 = getelementptr inbounds ptr, ptr %11, i64 6
  %13 = load ptr, ptr %12, align 8
  call void %13(ptr noundef nonnull align 8 dereferenceable(8) %10, i32 noundef 88)
  %14 = load ptr, ptr %2, align 8
  %15 = load ptr, ptr %14, align 8
  %16 = getelementptr inbounds ptr, ptr %15, i64 6
  %17 = load ptr, ptr %16, align 8
  call void %17(ptr noundef nonnull align 8 dereferenceable(8) %14, i32 noundef 56)
  %18 = load ptr, ptr %2, align 8
  %19 = call noundef i32 @_ZN12arrayOopDesc20base_offset_in_bytesE9BasicType(i8 noundef zeroext 8)
  %20 = load ptr, ptr %18, align 8
  %21 = getelementptr inbounds ptr, ptr %20, i64 6
  %22 = load ptr, ptr %21, align 8
  call void %22(ptr noundef nonnull align 8 dereferenceable(8) %18, i32 noundef %19)
  %23 = load ptr, ptr %2, align 8
  %24 = load ptr, ptr %23, align 8
  %25 = getelementptr inbounds ptr, ptr %24, i64 6
  %26 = load ptr, ptr %25, align 8
  call void %26(ptr noundef nonnull align 8 dereferenceable(8) %23, i32 noundef 72)
  %27 = load ptr, ptr %2, align 8
  %28 = load ptr, ptr %27, align 8
  %29 = getelementptr inbounds ptr, ptr %28, i64 6
  %30 = load ptr, ptr %29, align 8
  call void %30(ptr noundef nonnull align 8 dereferenceable(8) %27, i32 noundef 64)
  %31 = load ptr, ptr %2, align 8
  %32 = call noundef i32 @_ZN15objArrayOopDesc20base_offset_in_bytesEv()
  %33 = load ptr, ptr %31, align 8
  %34 = getelementptr inbounds ptr, ptr %33, i64 6
  %35 = load ptr, ptr %34, align 8
  call void %35(ptr noundef nonnull align 8 dereferenceable(8) %31, i32 noundef %32)
  %36 = load ptr, ptr %2, align 8
  %37 = call noundef i32 @_ZN12arrayOopDesc20base_offset_in_bytesE9BasicType(i8 noundef zeroext 8)
  %38 = load ptr, ptr %36, align 8
  %39 = getelementptr inbounds ptr, ptr %38, i64 6
  %40 = load ptr, ptr %39, align 8
  call void %40(ptr noundef nonnull align 8 dereferenceable(8) %36, i32 noundef %37)
  %41 = load ptr, ptr %2, align 8
  %42 = load ptr, ptr %41, align 8
  %43 = getelementptr inbounds ptr, ptr %42, i64 6
  %44 = load ptr, ptr %43, align 8
  call void %44(ptr noundef nonnull align 8 dereferenceable(8) %41, i32 noundef 8)
  %45 = load ptr, ptr %2, align 8
  call void @_ZN10CppVtables9serializeEP16SerializeClosure(ptr noundef %45)
  %46 = load ptr, ptr %2, align 8
  %47 = load i32, ptr %3, align 4
  %48 = add nsw i32 %47, -1
  store i32 %48, ptr %3, align 4
  %49 = load ptr, ptr %46, align 8
  %50 = getelementptr inbounds ptr, ptr %49, i64 6
  %51 = load ptr, ptr %50, align 8
  call void %51(ptr noundef nonnull align 8 dereferenceable(8) %46, i32 noundef %48)
  %52 = load ptr, ptr %2, align 8
  call void @_ZN11JavaClasses17serialize_offsetsEP16SerializeClosure(ptr noundef %52)
  %53 = load ptr, ptr %2, align 8
  call void @_ZN8Universe9serializeEP16SerializeClosure(ptr noundef %53)
  %54 = load ptr, ptr %2, align 8
  %55 = load i32, ptr %3, align 4
  %56 = add nsw i32 %55, -1
  store i32 %56, ptr %3, align 4
  %57 = load ptr, ptr %54, align 8
  %58 = getelementptr inbounds ptr, ptr %57, i64 6
  %59 = load ptr, ptr %58, align 8
  call void %59(ptr noundef nonnull align 8 dereferenceable(8) %54, i32 noundef %56)
  %60 = load ptr, ptr %2, align 8
  call void @_ZN9vmSymbols9serializeEP16SerializeClosure(ptr noundef %60)
  %61 = load ptr, ptr %2, align 8
  %62 = load i32, ptr %3, align 4
  %63 = add nsw i32 %62, -1
  store i32 %63, ptr %3, align 4
  %64 = load ptr, ptr %61, align 8
  %65 = getelementptr inbounds ptr, ptr %64, i64 6
  %66 = load ptr, ptr %65, align 8
  call void %66(ptr noundef nonnull align 8 dereferenceable(8) %61, i32 noundef %63)
  %67 = load ptr, ptr %2, align 8
  call void @_ZN11SymbolTable29serialize_shared_table_headerEP16SerializeClosureb(ptr noundef %67, i1 noundef zeroext true)
  %68 = load ptr, ptr %2, align 8
  call void @_ZN11StringTable29serialize_shared_table_headerEP16SerializeClosure(ptr noundef %68)
  %69 = load ptr, ptr %2, align 8
  call void @_ZN10HeapShared16serialize_tablesEP16SerializeClosure(ptr noundef %69)
  %70 = load ptr, ptr %2, align 8
  call void @_ZN22SystemDictionaryShared28serialize_dictionary_headersEP16SerializeClosureb(ptr noundef %70, i1 noundef zeroext true)
  %71 = load ptr, ptr %2, align 8
  call void @_ZN19InstanceMirrorKlass17serialize_offsetsEP16SerializeClosure(ptr noundef %71)
  %72 = load ptr, ptr %2, align 8
  call void @_ZN22SystemDictionaryShared20serialize_vm_classesEP16SerializeClosure(ptr noundef %72)
  %73 = load ptr, ptr %2, align 8
  %74 = load i32, ptr %3, align 4
  %75 = add nsw i32 %74, -1
  store i32 %75, ptr %3, align 4
  %76 = load ptr, ptr %73, align 8
  %77 = getelementptr inbounds ptr, ptr %76, i64 6
  %78 = load ptr, ptr %77, align 8
  call void %78(ptr noundef nonnull align 8 dereferenceable(8) %73, i32 noundef %75)
  %79 = load ptr, ptr %2, align 8
  call void @_ZN7Modules9serializeEP16SerializeClosure(ptr noundef %79)
  %80 = load ptr, ptr %2, align 8
  call void @_ZN21ClassLoaderDataShared9serializeEP16SerializeClosure(ptr noundef %80)
  %81 = load ptr, ptr %2, align 8
  call void @_ZN18LambdaFormInvokers9serializeEP16SerializeClosure(ptr noundef %81)
  %82 = load ptr, ptr %2, align 8
  %83 = load ptr, ptr %82, align 8
  %84 = getelementptr inbounds ptr, ptr %83, i64 6
  %85 = load ptr, ptr %84, align 8
  call void %85(ptr noundef nonnull align 8 dereferenceable(8) %82, i32 noundef 666)
  ret void
}