; Function Attrs: mustprogress nounwind uwtable
define hidden void @_ZN15MetaspaceShared9serializeEP16SerializeClosure(ptr noundef %0) local_unnamed_addr #3 align 2 {
  %2 = load ptr, ptr %0, align 8
  %3 = getelementptr inbounds i8, ptr %2, i64 48
  %4 = load ptr, ptr %3, align 8
  tail call void %4(ptr noundef nonnull align 8 dereferenceable(8) %0, i32 noundef -1) #15
  %5 = load ptr, ptr %0, align 8
  %6 = getelementptr inbounds i8, ptr %5, i64 48
  %7 = load ptr, ptr %6, align 8
  tail call void %7(ptr noundef nonnull align 8 dereferenceable(8) %0, i32 noundef 88) #15
  %8 = load ptr, ptr %0, align 8
  %9 = getelementptr inbounds i8, ptr %8, i64 48
  %10 = load ptr, ptr %9, align 8
  tail call void %10(ptr noundef nonnull align 8 dereferenceable(8) %0, i32 noundef 56) #15
  %11 = load i8, ptr @UseCompressedClassPointers, align 1
  %12 = trunc i8 %11 to i1
  %13 = select i1 %12, i32 16, i32 20
  %14 = load ptr, ptr %0, align 8
  %15 = getelementptr inbounds i8, ptr %14, i64 48
  %16 = load ptr, ptr %15, align 8
  tail call void %16(ptr noundef nonnull align 8 dereferenceable(8) %0, i32 noundef %13) #15
  %17 = load ptr, ptr %0, align 8
  %18 = getelementptr inbounds i8, ptr %17, i64 48
  %19 = load ptr, ptr %18, align 8
  tail call void %19(ptr noundef nonnull align 8 dereferenceable(8) %0, i32 noundef 72) #15
  %20 = load ptr, ptr %0, align 8
  %21 = getelementptr inbounds i8, ptr %20, i64 48
  %22 = load ptr, ptr %21, align 8
  tail call void %22(ptr noundef nonnull align 8 dereferenceable(8) %0, i32 noundef 64) #15
  %23 = load i8, ptr @UseCompressedClassPointers, align 1
  %24 = trunc i8 %23 to i1
  %25 = select i1 %24, i32 16, i32 20
  %26 = load i8, ptr @UseCompressedOops, align 1
  %27 = trunc i8 %26 to i1
  %narrow.i.i = add nuw nsw i32 %25, 7
  %28 = and i32 %narrow.i.i, 24
  %29 = select i1 %27, i32 %25, i32 %28
  %30 = load ptr, ptr %0, align 8
  %31 = getelementptr inbounds i8, ptr %30, i64 48
  %32 = load ptr, ptr %31, align 8
  tail call void %32(ptr noundef nonnull align 8 dereferenceable(8) %0, i32 noundef %29) #15
  %33 = load i8, ptr @UseCompressedClassPointers, align 1
  %34 = trunc i8 %33 to i1
  %35 = select i1 %34, i32 16, i32 20
  %36 = load ptr, ptr %0, align 8
  %37 = getelementptr inbounds i8, ptr %36, i64 48
  %38 = load ptr, ptr %37, align 8
  tail call void %38(ptr noundef nonnull align 8 dereferenceable(8) %0, i32 noundef %35) #15
  %39 = load ptr, ptr %0, align 8
  %40 = getelementptr inbounds i8, ptr %39, i64 48
  %41 = load ptr, ptr %40, align 8
  tail call void %41(ptr noundef nonnull align 8 dereferenceable(8) %0, i32 noundef 8) #15
  tail call void @_ZN10CppVtables9serializeEP16SerializeClosure(ptr noundef nonnull %0) #15
  %42 = load ptr, ptr %0, align 8
  %43 = getelementptr inbounds i8, ptr %42, i64 48
  %44 = load ptr, ptr %43, align 8
  tail call void %44(ptr noundef nonnull align 8 dereferenceable(8) %0, i32 noundef -2) #15
  tail call void @_ZN11JavaClasses17serialize_offsetsEP16SerializeClosure(ptr noundef nonnull %0) #15
  tail call void @_ZN8Universe9serializeEP16SerializeClosure(ptr noundef nonnull %0) #15
  %45 = load ptr, ptr %0, align 8
  %46 = getelementptr inbounds i8, ptr %45, i64 48
  %47 = load ptr, ptr %46, align 8
  tail call void %47(ptr noundef nonnull align 8 dereferenceable(8) %0, i32 noundef -3) #15
  tail call void @_ZN9vmSymbols9serializeEP16SerializeClosure(ptr noundef nonnull %0) #15
  %48 = load ptr, ptr %0, align 8
  %49 = getelementptr inbounds i8, ptr %48, i64 48
  %50 = load ptr, ptr %49, align 8
  tail call void %50(ptr noundef nonnull align 8 dereferenceable(8) %0, i32 noundef -4) #15
  tail call void @_ZN11SymbolTable29serialize_shared_table_headerEP16SerializeClosureb(ptr noundef nonnull %0, i1 noundef zeroext true) #15
  tail call void @_ZN11StringTable29serialize_shared_table_headerEP16SerializeClosure(ptr noundef nonnull %0) #15
  tail call void @_ZN10HeapShared16serialize_tablesEP16SerializeClosure(ptr noundef nonnull %0) #15
  tail call void @_ZN22SystemDictionaryShared28serialize_dictionary_headersEP16SerializeClosureb(ptr noundef nonnull %0, i1 noundef zeroext true) #15
  tail call void @_ZN19InstanceMirrorKlass17serialize_offsetsEP16SerializeClosure(ptr noundef nonnull %0) #15
  tail call void @_ZN22SystemDictionaryShared20serialize_vm_classesEP16SerializeClosure(ptr noundef nonnull %0) #15
  %51 = load ptr, ptr %0, align 8
  %52 = getelementptr inbounds i8, ptr %51, i64 48
  %53 = load ptr, ptr %52, align 8
  tail call void %53(ptr noundef nonnull align 8 dereferenceable(8) %0, i32 noundef -5) #15
  tail call void @_ZN7Modules9serializeEP16SerializeClosure(ptr noundef nonnull %0) #15
  tail call void @_ZN21ClassLoaderDataShared9serializeEP16SerializeClosure(ptr noundef nonnull %0) #15
  tail call void @_ZN18LambdaFormInvokers9serializeEP16SerializeClosure(ptr noundef nonnull %0) #15
  %54 = load ptr, ptr %0, align 8
  %55 = getelementptr inbounds i8, ptr %54, i64 48
  %56 = load ptr, ptr %55, align 8
  tail call void %56(ptr noundef nonnull align 8 dereferenceable(8) %0, i32 noundef 666) #15
  ret void
}